(dp1
N(dp2
S'content'
p3
(lp4
(dp5
S'direction'
p6
S''
sS'form'
p7
(lp8
S'small'
p9
asS'strt_pos'
p10
S''
sS'coord'
p11
(lp12
I59
aI1889
aI8
aI22
asS'strt_pitch'
p13
S''
sS'type'
p14
S'division'
p15
sa(dp16
g6
S'D'
sg7
(lp17
S'punctum'
p18
aS'inclinatum'
p19
asg10
S''
sg11
(lp20
I69
aI1890
aI10
aI21
asg13
S''
sg14
S'neume'
p21
sa(dp22
g6
S'D'
sg7
(lp23
g18
asg10
S''
sg11
(lp24
I79
aI1895
aI13
aI16
asg13
S''
sg14
g21
sa(dp25
g6
S'U'
sg7
(lp26
S'torculus'
p27
aS'2'
aS'2'
aS'dot'
p28
asg10
S''
sg11
(lp29
I114
aI1887
aI70
aI24
asg13
S''
sg14
g21
sa(dp30
g6
S''
sg7
(lp31
S'major'
p32
asg10
S''
sg11
(lp33
I118
aI934
aI5
aI80
asg13
S''
sg14
g15
sa(dp34
g6
S''
sg7
(lp35
g32
asg10
S''
sg11
(lp36
I172
aI543
aI5
aI78
asg13
S''
sg14
g15
sa(dp37
g6
S'U'
sg7
(lp38
g18
ag28
asg10
S''
sg11
(lp39
I196
aI1894
aI23
aI16
asg13
S''
sg14
g21
sa(dp40
g6
S'D'
sg7
(lp41
g18
ag19
asg10
S''
sg11
(lp42
I221
aI1889
aI10
aI21
asg13
S''
sg14
g21
sa(dp43
g6
S''
sg7
(lp44
S'final'
p45
asg10
S''
sg11
(lp46
I226
aI1321
aI14
aI79
asg13
S''
sg14
g15
sa(dp47
g6
S'D'
sg7
(lp48
g18
asg10
S''
sg11
(lp49
I253
aI1894
aI14
aI16
asg13
S''
sg14
g21
sa(dp50
g6
S'D'
sg7
(lp51
g18
ag19
asg10
S''
sg11
(lp52
I269
aI1895
aI13
aI13
asg13
S''
sg14
g21
sa(dp53
g6
S''
sg7
(lp54
g32
asg10
S''
sg11
(lp55
I294
aI739
aI5
aI79
asg13
S''
sg14
g15
sa(dp56
g6
S'D'
sg7
(lp57
S'virga'
p58
asg10
S''
sg11
(lp59
I295
aI1887
aI17
aI21
asg13
S''
sg14
g21
sa(dp60
g6
S''
sg7
(lp61
g45
asg10
S''
sg11
(lp62
I314
aI1512
aI15
aI80
asg13
S''
sg14
g15
sa(dp63
g6
S'D'
sg7
(lp64
g18
asg10
S''
sg11
(lp65
I314
aI1894
aI12
aI14
asg13
S''
sg14
g21
sa(dp66
g6
S'D'
sg7
(lp67
g18
asg10
S''
sg11
(lp68
I328
aI1894
aI14
aI14
asg13
S''
sg14
g21
sa(dp69
g6
S''
sg7
(lp70
g9
asg10
S''
sg11
(lp71
I333
aI339
aI5
aI26
asg13
S''
sg14
g15
sa(dp72
g6
S'U'
sg7
(lp73
g18
ag28
asg10
S''
sg11
(lp74
I344
aI1886
aI28
aI22
asg13
S''
sg14
g21
sa(dp75
g6
S''
sg7
(lp76
g9
asg10
S''
sg11
(lp77
I375
aI1894
aI5
aI14
asg13
S''
sg14
g15
sa(dp78
g6
S'D'
sg7
(lp79
g18
ag19
ag28
asg10
S''
sg11
(lp80
I383
aI1892
aI27
aI16
asg13
S''
sg14
g21
sa(dp81
g6
S''
sg7
(lp82
g45
asg10
S''
sg11
(lp83
I392
aI1704
aI13
aI80
asg13
S''
sg14
g15
sa(dp84
g6
S'U'
sg7
(lp85
g18
ag28
asg10
S''
sg11
(lp86
I413
aI1893
aI20
aI15
asg13
S''
sg14
g21
sa(dp87
g6
S'D'
sg7
(lp88
g18
asg10
S''
sg11
(lp89
I436
aI1893
aI13
aI15
asg13
S''
sg14
g21
sa(dp90
g6
S'D'
sg7
(lp91
g18
ag19
asg10
S''
sg11
(lp92
I451
aI1892
aI11
aI16
asg13
S''
sg14
g21
sa(dp93
g6
S''
sg7
(lp94
g9
asg10
S''
sg11
(lp95
I452
aI1122
aI4
aI24
asg13
S''
sg14
g15
sa(dp96
g6
S'D'
sg7
(lp97
g18
ag19
ag28
asg10
S''
sg11
(lp98
I475
aI1885
aI19
aI23
asg13
S''
sg14
g21
sa(dp99
g6
S'D'
sg7
(lp100
g18
ag19
asg10
S''
sg11
(lp101
I496
aI1884
aI14
aI24
asg13
S''
sg14
g21
sa(dp102
g6
S'U'
sg7
(lp103
g18
ag28
asg10
S''
sg11
(lp104
I511
aI1892
aI21
aI16
asg13
S''
sg14
g21
sa(dp105
g6
S''
sg7
(lp106
g9
asg10
S''
sg11
(lp107
I517
aI339
aI3
aI26
asg13
S''
sg14
g15
sa(dp108
g6
S''
sg7
(lp109
g9
asg10
S''
sg11
(lp110
I522
aI1309
aI4
aI24
asg13
S''
sg14
g15
sa(dp111
g6
S''
sg7
(lp112
g45
asg10
S''
sg11
(lp113
I524
aI934
aI14
aI80
asg13
S''
sg14
g15
sa(dp114
g6
S''
sg7
(lp115
g45
asg10
S''
sg11
(lp116
I536
aI161
aI14
aI76
asg13
S''
sg14
g15
sa(dp117
g6
S''
sg7
(lp118
g9
asg10
S''
sg11
(lp119
I536
aI1892
aI5
aI14
asg13
S''
sg14
g15
sa(dp120
g6
S'D'
sg7
(lp121
g18
asg10
S''
sg11
(lp122
I544
aI1892
aI14
aI16
asg13
S''
sg14
g21
sa(dp123
g6
S'D'
sg7
(lp124
g18
ag19
asg10
S''
sg11
(lp125
I560
aI1890
aI13
aI18
asg13
S''
sg14
g21
sa(dp126
g6
S'U'
sg7
(lp127
g18
ag28
asg10
S''
sg11
(lp128
I594
aI1890
aI28
aI16
asg13
S''
sg14
g21
sa(dp129
g6
S''
sg7
(lp130
g9
asg10
S''
sg11
(lp131
I603
aI1500
aI5
aI26
asg13
S''
sg14
g15
sa(dp132
g6
S''
sg7
(lp133
g9
asg10
S''
sg11
(lp134
I634
aI1884
aI8
aI22
asg13
S''
sg14
g15
sa(dp135
g6
S'D'
sg7
(lp136
g18
asg10
S''
sg11
(lp137
I644
aI1891
aI14
aI15
asg13
S''
sg14
g21
sa(dp138
g6
S''
sg7
(lp139
g9
asg10
S''
sg11
(lp140
I659
aI532
aI4
aI24
asg13
S''
sg14
g15
sa(dp141
g6
S'D'
sg7
(lp142
g18
ag19
asg10
S''
sg11
(lp143
I672
aI1884
aI16
aI21
asg13
S''
sg14
g21
sa(dp144
g6
S''
sg7
(lp145
S'minor'
p146
asg10
S''
sg11
(lp147
I688
aI364
aI4
aI53
asg13
S''
sg14
g15
sa(dp148
g6
S'D'
sg7
(lp149
g18
ag19
asg10
S''
sg11
(lp150
I689
aI1883
aI16
aI22
asg13
S''
sg14
g21
sa(dp151
g6
S'D'
sg7
(lp152
g18
asg10
S''
sg11
(lp153
I704
aI1890
aI15
aI15
asg13
S''
sg14
g21
sa(dp154
g6
S'D'
sg7
(lp155
g18
ag19
asg10
S''
sg11
(lp156
I720
aI1890
aI11
aI16
asg13
S''
sg14
g21
sa(dp157
g6
S''
sg7
(lp158
g9
asg10
S''
sg11
(lp159
I724
aI727
aI4
aI26
asg13
S''
sg14
g15
sa(dp160
g6
S'D'
sg7
(lp161
g18
ag19
asg10
S''
sg11
(lp162
I733
aI1890
aI11
aI16
asg13
S''
sg14
g21
sa(dp163
g6
S'D'
sg7
(lp164
g18
ag19
asg10
S''
sg11
(lp165
I757
aI1883
aI14
aI22
asg13
S''
sg14
g21
sa(dp166
g6
S'U'
sg7
(lp167
g18
ag28
asg10
S''
sg11
(lp168
I773
aI1882
aI27
aI23
asg13
S''
sg14
g21
sa(dp169
g6
S''
sg7
(lp170
g45
asg10
S''
sg11
(lp171
I833
aI162
aI14
aI75
asg13
S''
sg14
g15
sa(dp172
g6
S''
sg7
(lp173
g32
asg10
S''
sg11
(lp174
I918
aI543
aI4
aI78
asg13
S''
sg14
g15
sa(dp175
g6
S''
sg7
(lp176
g146
asg10
S''
sg11
(lp177
I925
aI1146
aI6
aI52
asg13
S''
sg14
g15
sa(dp178
g6
S''
sg7
(lp179
g146
asg10
S''
sg11
(lp180
I1006
aI1332
aI5
aI53
asg13
S''
sg14
g15
sa(dp181
g6
S''
sg7
(lp182
g9
asg10
S''
sg11
(lp183
I1011
aI1100
aI6
aI16
asg13
S''
sg14
g15
sa(dp184
g6
S''
sg7
(lp185
S''
asg10
S''
sg11
(lp186
I1022
aI1100
aI6
aI16
asg13
S''
sg14
S'custos'
p187
sa(dp188
g6
S''
sg7
(lp189
g146
asg10
S''
sg11
(lp190
I1065
aI1526
aI5
aI52
asg13
S''
sg14
g15
sa(dp191
g6
S''
sg7
(lp192
S''
asg10
S''
sg11
(lp193
I1086
aI371
aI9
aI44
asg13
S''
sg14
g187
sa(dp194
g6
S''
sg7
(lp195
S''
asg10
S''
sg11
(lp196
I1088
aI558
aI10
aI38
asg13
S''
sg14
g187
sa(dp197
g6
S''
sg7
(lp198
S''
asg10
S''
sg11
(lp199
I1088
aI1339
aI7
aI18
asg13
S''
sg14
g187
sa(dp200
g6
S''
sg7
(lp201
S''
asg10
S''
sg11
(lp202
I1089
aI1154
aI8
aI42
asg13
S''
sg14
g187
sa(dp203
g6
S''
sg7
(lp204
S''
asg10
S''
sg11
(lp205
I1090
aI780
aI10
aI38
asg13
S''
sg14
g187
sa(dp206
g6
S''
sg7
(lp207
S''
asg10
S''
sg11
(lp208
I1091
aI1538
aI8
aI27
asg13
S''
sg14
g187
sassI1
(dp209
g3
(lp210
(dp211
g6
S''
sg7
(lp212
S'c'
asg10
I3
sg11
(lp213
I18
aI142
aI14
aI40
asg13
S''
sg14
S'clef'
p214
sa(dp215
g6
S'U'
sg7
(lp216
S'epiphonus'
p217
aS'3'
asg10
I5
sg11
(lp218
I55
aI156
aI15
aI39
asg13
S'A'
sg14
g21
sa(dp219
g6
S'D'
sg7
(lp220
g18
asg10
I3
sg11
(lp221
I145
aI154
aI13
aI16
asg13
S'C'
sg14
g21
sa(dp222
g6
S'D'
sg7
(lp223
S'clivis'
p224
aS'2'
asg10
I3
sg11
(lp225
I162
aI154
aI27
aI39
asg13
S'C'
sg14
g21
sa(dp226
g6
S'D'
sg7
(lp227
g224
aS'2'
asg10
I5
sg11
(lp228
I213
aI179
aI26
aI35
asg13
S'A'
sg14
g21
sa(dp229
g6
S'D'
sg7
(lp230
g18
aS'verticalepisema'
p231
asg10
I6
sg11
(lp232
I264
aI192
aI14
aI31
asg13
S'G'
sg14
g21
sa(dp233
g6
S'D'
sg7
(lp234
g18
asg10
I6
sg11
(lp235
I333
aI192
aI14
aI15
asg13
S'G'
sg14
g21
sa(dp236
g6
S'D'
sg7
(lp237
g18
asg10
I5
sg11
(lp238
I372
aI179
aI13
aI15
asg13
S'A'
sg14
g21
sa(dp239
g6
S'U'
sg7
(lp240
S'scandicus'
p241
aS'2'
aS'2'
asg10
I8
sg11
(lp242
I435
aI186
aI25
aI45
asg13
S'E'
sg14
g21
sa(dp243
g6
S'U'
sg7
(lp244
g18
ag28
asg10
I6
sg11
(lp245
I485
aI192
aI24
aI16
asg13
S'G'
sg14
g21
sa(dp246
g6
S'D'
sg7
(lp247
g224
aS'3'
asg10
I6
sg11
(lp248
I580
aI192
aI26
aI39
asg13
S'G'
sg14
g21
sa(dp249
g6
S'D'
sg7
(lp250
g58
asg10
I7
sg11
(lp251
I612
aI203
aI13
aI44
asg13
S'F'
sg14
g21
sa(dp252
g6
S'D'
sg7
(lp253
g18
ag19
asg10
I7
sg11
(lp254
I631
aI209
aI11
aI22
asg13
S'F'
sg14
g21
sa(dp255
g6
S'D'
sg7
(lp256
g18
ag19
ag28
asg10
I9
sg11
(lp257
I644
aI226
aI23
aI26
asg13
S'D'
sg14
g21
sa(dp258
g6
S'D'
sg7
(lp259
g18
asg10
I6
sg11
(lp260
I668
aI192
aI14
aI14
asg13
S'G'
sg14
g21
sa(dp261
g6
S'U'
sg7
(lp262
g27
aS'2'
aS'2'
asg10
I5
sg11
(lp263
I688
aI168
aI37
aI27
asg13
S'A'
sg14
g21
sa(dp264
g6
S'D'
sg7
(lp265
g18
asg10
I5
sg11
(lp266
I732
aI180
aI12
aI15
asg13
S'A'
sg14
g21
sa(dp267
g6
S'D'
sg7
(lp268
g224
aS'2'
asg10
I5
sg11
(lp269
I769
aI180
aI25
aI40
asg13
S'A'
sg14
g21
sassI2
(dp270
g3
(lp271
(dp272
g6
S''
sg7
(lp273
S'c'
asg10
I3
sg11
(lp274
I145
aI331
aI14
aI41
asg13
S''
sg14
g214
sa(dp275
g6
S'D'
sg7
(lp276
g18
asg10
I8
sg11
(lp277
I185
aI408
aI12
aI16
asg13
S'E'
sg14
g21
sa(dp278
g6
S'U'
sg7
(lp279
S'podatus'
p280
aS'3'
asg10
I8
sg11
(lp281
I203
aI382
aI13
aI41
asg13
S'E'
sg14
g21
sa(dp282
g6
S'U'
sg7
(lp283
g18
ag28
asg10
I8
sg11
(lp284
I267
aI408
aI23
aI16
asg13
S'E'
sg14
g21
sa(dp285
g6
S'D'
sg7
(lp286
g18
asg10
I7
sg11
(lp287
I386
aI396
aI14
aI15
asg13
S'F'
sg14
g21
sa(dp288
g6
S'D'
sg7
(lp289
g18
asg10
I7
sg11
(lp290
I405
aI395
aI13
aI16
asg13
S'F'
sg14
g21
sa(dp291
g6
S'D'
sg7
(lp292
g18
asg10
I7
sg11
(lp293
I424
aI395
aI14
aI16
asg13
S'F'
sg14
g21
sa(dp294
g6
S'D'
sg7
(lp295
g224
aS'2'
asg10
I9
sg11
(lp296
I462
aI419
aI26
aI30
asg13
S'D'
sg14
g21
sa(dp297
g6
S'U'
sg7
(lp298
g27
aS'3'
aS'3'
asg10
I9
sg11
(lp299
I551
aI396
aI39
aI41
asg13
S'D'
sg14
g21
sa(dp300
g6
S'U'
sg7
(lp301
g18
ag28
asg10
I8
sg11
(lp302
I626
aI408
aI24
aI16
asg13
S'E'
sg14
g21
sa(dp303
g6
S'D'
sg7
(lp304
g18
ag231
asg10
I6
sg11
(lp305
I734
aI383
aI13
aI34
asg13
S'G'
sg14
g21
sa(dp306
g6
S'D'
sg7
(lp307
g18
asg10
I7
sg11
(lp308
I784
aI395
aI14
aI16
asg13
S'F'
sg14
g21
sa(dp309
g6
S'D'
sg7
(lp310
g18
ag231
asg10
I6
sg11
(lp311
I822
aI383
aI14
aI34
asg13
S'G'
sg14
g21
sa(dp312
g6
S'D'
sg7
(lp313
g18
asg10
I6
sg11
(lp314
I917
aI383
aI13
aI16
asg13
S'G'
sg14
g21
sa(dp315
g6
S'D'
sg7
(lp316
g224
aS'2'
asg10
I6
sg11
(lp317
I954
aI382
aI27
aI30
asg13
S'G'
sg14
g21
sa(dp318
g6
S'D'
sg7
(lp319
g18
asg10
I6
sg11
(lp320
I1043
aI382
aI14
aI17
asg13
S'G'
sg14
g21
sassI3
(dp321
g3
(lp322
(dp323
g6
S''
sg7
(lp324
S'c'
asg10
I3
sg11
(lp325
I21
aI523
aI15
aI41
asg13
S''
sg14
g214
sa(dp326
g6
S'D'
sg7
(lp327
g224
aS'2'
asg10
I7
sg11
(lp328
I54
aI586
aI27
aI44
asg13
S'F'
sg14
g21
sa(dp329
g6
S'U'
sg7
(lp330
g18
ag28
asg10
I8
sg11
(lp331
I104
aI599
aI24
aI16
asg13
S'E'
sg14
g21
sa(dp332
g6
S'D'
sg7
(lp333
g18
ag231
asg10
I6
sg11
(lp334
I225
aI574
aI13
aI34
asg13
S'G'
sg14
g21
sa(dp335
g6
S'D'
sg7
(lp336
g18
asg10
I7
sg11
(lp337
I262
aI586
aI15
aI16
asg13
S'F'
sg14
g21
sa(dp338
g6
S'D'
sg7
(lp339
g224
aS'2'
asg10
I9
sg11
(lp340
I313
aI611
aI27
aI29
asg13
S'D'
sg14
g21
sa(dp341
g6
S'D'
sg7
(lp342
g18
asg10
I9
sg11
(lp343
I414
aI611
aI14
aI16
asg13
S'D'
sg14
g21
sa(dp344
g6
S'D'
sg7
(lp345
g18
ag231
asg10
I7
sg11
(lp346
I453
aI585
aI14
aI37
asg13
S'F'
sg14
g21
sa(dp347
g6
S'D'
sg7
(lp348
g18
asg10
I9
sg11
(lp349
I504
aI611
aI13
aI16
asg13
S'D'
sg14
g21
sa(dp350
g6
S'U'
sg7
(lp351
g280
aS'2'
asg10
I9
sg11
(lp352
I566
aI597
aI15
aI31
asg13
S'D'
sg14
g21
sa(dp353
g6
S'U'
sg7
(lp354
g18
ag28
asg10
I8
sg11
(lp355
I617
aI598
aI23
aI17
asg13
S'E'
sg14
g21
sa(dp356
g6
S'D'
sg7
(lp357
g18
ag231
asg10
I6
sg11
(lp358
I686
aI573
aI13
aI35
asg13
S'G'
sg14
g21
sa(dp359
g6
S'D'
sg7
(lp360
g18
asg10
I7
sg11
(lp361
I730
aI585
aI14
aI17
asg13
S'F'
sg14
g21
sa(dp362
g6
S'D'
sg7
(lp363
g18
asg10
I6
sg11
(lp364
I768
aI575
aI13
aI15
asg13
S'G'
sg14
g21
sa(dp365
g6
S'D'
sg7
(lp366
g224
aS'2'
asg10
I7
sg11
(lp367
I819
aI586
aI26
aI45
asg13
S'F'
sg14
g21
sa(dp368
g6
S'U'
sg7
(lp369
g18
ag28
asg10
I8
sg11
(lp370
I869
aI599
aI24
aI16
asg13
S'E'
sg14
g21
sa(dp371
g6
S'D'
sg7
(lp372
g18
asg10
I6
sg11
(lp373
I951
aI574
aI14
aI14
asg13
S'G'
sg14
g21
sa(dp374
g6
S'U'
sg7
(lp375
g217
aS'2'
asg10
I7
sg11
(lp376
I990
aI561
aI13
aI35
asg13
S'F'
sg14
g21
sa(dp377
g6
S'D'
sg7
(lp378
g18
ag231
asg10
I5
sg11
(lp379
I1053
aI561
aI15
aI35
asg13
S'A'
sg14
g21
sassI4
(dp380
g3
(lp381
(dp382
g6
S''
sg7
(lp383
S'c'
asg10
I3
sg11
(lp384
I24
aI719
aI13
aI41
asg13
S''
sg14
g214
sa(dp385
g6
S'D'
sg7
(lp386
g18
asg10
I6
sg11
(lp387
I62
aI771
aI13
aI15
asg13
S'G'
sg14
g21
sa(dp388
g6
S'D'
sg7
(lp389
g18
asg10
I7
sg11
(lp390
I113
aI782
aI13
aI17
asg13
S'F'
sg14
g21
sa(dp391
g6
S'D'
sg7
(lp392
g18
asg10
I6
sg11
(lp393
I176
aI771
aI13
aI15
asg13
S'G'
sg14
g21
sa(dp394
g6
S'D'
sg7
(lp395
g18
asg10
I6
sg11
(lp396
I195
aI771
aI13
aI15
asg13
S'G'
sg14
g21
sa(dp397
g6
S'U'
sg7
(lp398
g18
ag28
asg10
I8
sg11
(lp399
I233
aI795
aI24
aI16
asg13
S'E'
sg14
g21
sa(dp400
g6
S'D'
sg7
(lp401
g18
asg10
I6
sg11
(lp402
I340
aI771
aI13
aI15
asg13
S'G'
sg14
g21
sa(dp403
g6
S'D'
sg7
(lp404
g18
ag231
asg10
I8
sg11
(lp405
I378
aI796
aI14
aI34
asg13
S'E'
sg14
g21
sa(dp406
g6
S'D'
sg7
(lp407
g18
asg10
I7
sg11
(lp408
I416
aI782
aI14
aI17
asg13
S'F'
sg14
g21
sa(dp409
g6
S'D'
sg7
(lp410
g224
aS'2'
asg10
I9
sg11
(lp411
I460
aI806
aI26
aI32
asg13
S'D'
sg14
g21
sa(dp412
g6
S'D'
sg7
(lp413
g18
asg10
I9
sg11
(lp414
I561
aI807
aI15
aI16
asg13
S'D'
sg14
g21
sa(dp415
g6
S'D'
sg7
(lp416
g18
asg10
I9
sg11
(lp417
I611
aI807
aI15
aI17
asg13
S'D'
sg14
g21
sa(dp418
g6
S'D'
sg7
(lp419
g18
asg10
I7
sg11
(lp420
I624
aI783
aI14
aI16
asg13
S'F'
sg14
g21
sa(dp421
g6
S'D'
sg7
(lp422
g18
asg10
I9
sg11
(lp423
I636
aI807
aI15
aI17
asg13
S'D'
sg14
g21
sa(dp424
g6
S'U'
sg7
(lp425
g18
ag28
asg10
I8
sg11
(lp426
I675
aI796
aI23
aI15
asg13
S'E'
sg14
g21
sa(dp427
g6
S'D'
sg7
(lp428
g18
asg10
I6
sg11
(lp429
I750
aI771
aI15
aI16
asg13
S'G'
sg14
g21
sa(dp430
g6
S'D'
sg7
(lp431
g18
ag231
asg10
I6
sg11
(lp432
I827
aI771
aI13
aI33
asg13
S'G'
sg14
g21
sa(dp433
g6
S'D'
sg7
(lp434
g18
asg10
I6
sg11
(lp435
I877
aI770
aI14
aI16
asg13
S'G'
sg14
g21
sa(dp436
g6
S'D'
sg7
(lp437
g18
ag231
asg10
I7
sg11
(lp438
I916
aI783
aI13
aI34
asg13
S'F'
sg14
g21
sa(dp439
g6
S'D'
sg7
(lp440
g18
asg10
I6
sg11
(lp441
I984
aI770
aI13
aI16
asg13
S'G'
sg14
g21
sa(dp442
g6
S'D'
sg7
(lp443
g224
aS'2'
asg10
I7
sg11
(lp444
I1035
aI784
aI26
aI43
asg13
S'F'
sg14
g21
sassI5
(dp445
g3
(lp446
(dp447
g6
S''
sg7
(lp448
S'c'
asg10
I3
sg11
(lp449
I25
aI916
aI14
aI39
asg13
S''
sg14
g214
sa(dp450
g6
S'U'
sg7
(lp451
g18
ag28
asg10
I8
sg11
(lp452
I63
aI991
aI24
aI16
asg13
S'E'
sg14
g21
sa(dp453
g6
S'D'
sg7
(lp454
g18
asg10
I6
sg11
(lp455
I152
aI966
aI13
aI16
asg13
S'G'
sg14
g21
sa(dp456
g6
S'U'
sg7
(lp457
g217
aS'2'
asg10
I7
sg11
(lp458
I189
aI953
aI14
aI35
asg13
S'F'
sg14
g21
sa(dp459
g6
S'D'
sg7
(lp460
g18
ag231
asg10
I5
sg11
(lp461
I252
aI952
aI14
aI36
asg13
S'A'
sg14
g21
sa(dp462
g6
S'D'
sg7
(lp463
g18
asg10
I6
sg11
(lp464
I303
aI966
aI13
aI16
asg13
S'G'
sg14
g21
sa(dp465
g6
S'D'
sg7
(lp466
g18
asg10
I7
sg11
(lp467
I353
aI978
aI14
aI17
asg13
S'F'
sg14
g21
sa(dp468
g6
S'D'
sg7
(lp469
g18
asg10
I6
sg11
(lp470
I417
aI966
aI12
aI16
asg13
S'G'
sg14
g21
sa(dp471
g6
S'D'
sg7
(lp472
g18
asg10
I6
sg11
(lp473
I436
aI967
aI13
aI15
asg13
S'G'
sg14
g21
sa(dp474
g6
S'U'
sg7
(lp475
g18
ag28
asg10
I8
sg11
(lp476
I473
aI990
aI23
aI17
asg13
S'E'
sg14
g21
sassI6
(dp477
g3
(lp478
(dp479
g6
S''
sg7
(lp480
S'f'
asg10
I5
sg11
(lp481
I150
aI1138
aI26
aI41
asg13
S''
sg14
g214
sa(dp482
g6
S'D'
sg7
(lp483
g18
asg10
I6
sg11
(lp484
I201
aI1162
aI14
aI17
asg13
S'G'
sg14
g21
sa(dp485
g6
S'D'
sg7
(lp486
g224
aS'2'
asg10
I7
sg11
(lp487
I263
aI1176
aI27
aI35
asg13
S'F'
sg14
g21
sa(dp488
g6
S'U'
sg7
(lp489
g280
aS'2'
asg10
I7
sg11
(lp490
I353
aI1162
aI13
aI30
asg13
S'F'
sg14
g21
sa(dp491
g6
S'U'
sg7
(lp492
g18
ag28
asg10
I6
sg11
(lp493
I391
aI1163
aI22
aI16
asg13
S'G'
sg14
g21
sa(dp494
g6
S'D'
sg7
(lp495
g18
asg10
I6
sg11
(lp496
I498
aI1163
aI13
aI16
asg13
S'G'
sg14
g21
sa(dp497
g6
S'D'
sg7
(lp498
g18
ag231
asg10
I4
sg11
(lp499
I548
aI1138
aI14
aI33
asg13
S'B'
sg14
g21
sa(dp500
g6
S'D'
sg7
(lp501
g18
asg10
I3
sg11
(lp502
I587
aI1127
aI14
aI15
asg13
S'C'
sg14
g21
sa(dp503
g6
S'D'
sg7
(lp504
g224
aS'2'
asg10
I4
sg11
(lp505
I655
aI1138
aI27
aI28
asg13
S'B'
sg14
g21
sa(dp506
g6
S'D'
sg7
(lp507
g18
asg10
I4
sg11
(lp508
I712
aI1138
aI14
aI16
asg13
S'B'
sg14
g21
sa(dp509
g6
S'D'
sg7
(lp510
g224
aS'2'
asg10
I4
sg11
(lp511
I750
aI1139
aI27
aI31
asg13
S'B'
sg14
g21
sa(dp512
g6
S'U'
sg7
(lp513
g18
ag28
asg10
I6
sg11
(lp514
I820
aI1164
aI24
aI15
asg13
S'G'
sg14
g21
sa(dp515
g6
S'U'
sg7
(lp516
g18
ag28
asg10
I6
sg11
(lp517
I877
aI1164
aI24
aI15
asg13
S'G'
sg14
g21
sa(dp518
g6
S'D'
sg7
(lp519
g18
asg10
I6
sg11
(lp520
I960
aI1164
aI12
aI16
asg13
S'G'
sg14
g21
sa(dp521
g6
S'D'
sg7
(lp522
g18
asg10
I1
sg11
(lp523
I991
aI1100
aI16
aI16
asg13
S'E'
sg14
g21
sa(dp524
g6
S'D'
sg7
(lp525
g224
aS'2'
asg10
I6
sg11
(lp526
I997
aI1163
aI26
aI33
asg13
S'G'
sg14
g21
sa(dp527
g6
S'D'
sg7
(lp528
g18
asg10
I5
sg11
(lp529
I1047
aI1151
aI14
aI16
asg13
S'A'
sg14
g21
sa(dp530
g6
S'D'
sg7
(lp531
g18
asg10
I1
sg11
(lp532
I1048
aI1102
aI13
aI14
asg13
S'E'
sg14
g21
sassI7
(dp533
g3
(lp534
(dp535
g6
S''
sg7
(lp536
S'f'
asg10
I5
sg11
(lp537
I25
aI1326
aI26
aI40
asg13
S''
sg14
g214
sa(dp538
g6
S'U'
sg7
(lp539
g280
aS'2'
asg10
I7
sg11
(lp540
I75
aI1344
aI14
aI37
asg13
S'F'
sg14
g21
sa(dp541
g6
S'U'
sg7
(lp542
g18
ag28
asg10
I6
sg11
(lp543
I131
aI1351
aI24
aI16
asg13
S'G'
sg14
g21
sa(dp544
g6
S'U'
sg7
(lp545
g18
ag28
asg10
I6
sg11
(lp546
I181
aI1351
aI23
aI17
asg13
S'G'
sg14
g21
sa(dp547
g6
S'D'
sg7
(lp548
g18
asg10
I4
sg11
(lp549
I257
aI1326
aI14
aI16
asg13
S'B'
sg14
g21
sa(dp550
g6
S'D'
sg7
(lp551
g18
ag231
asg10
I4
sg11
(lp552
I334
aI1327
aI13
aI32
asg13
S'B'
sg14
g21
sa(dp553
g6
S'D'
sg7
(lp554
g18
asg10
I3
sg11
(lp555
I422
aI1313
aI14
aI17
asg13
S'C'
sg14
g21
sa(dp556
g6
S'U'
sg7
(lp557
g18
ag28
asg10
I4
sg11
(lp558
I460
aI1326
aI23
aI15
asg13
S'B'
sg14
g21
sa(dp559
g6
S'D'
sg7
(lp560
g18
asg10
I5
sg11
(lp561
I568
aI1338
aI13
aI16
asg13
S'A'
sg14
g21
sa(dp562
g6
S'D'
sg7
(lp563
g18
ag231
asg10
I4
sg11
(lp564
I617
aI1327
aI14
aI31
asg13
S'B'
sg14
g21
sa(dp565
g6
S'D'
sg7
(lp566
g18
asg10
I3
sg11
(lp567
I655
aI1314
aI14
aI16
asg13
S'C'
sg14
g21
sa(dp568
g6
S'D'
sg7
(lp569
g224
aS'2'
asg10
I4
sg11
(lp570
I724
aI1326
aI28
aI33
asg13
S'B'
sg14
g21
sa(dp571
g6
S'D'
sg7
(lp572
g18
asg10
I4
sg11
(lp573
I781
aI1326
aI14
aI16
asg13
S'B'
sg14
g21
sa(dp574
g6
S'D'
sg7
(lp575
g224
aS'2'
asg10
I4
sg11
(lp576
I818
aI1327
aI28
aI32
asg13
S'B'
sg14
g21
sa(dp577
g6
S'U'
sg7
(lp578
g18
ag28
asg10
I6
sg11
(lp579
I888
aI1350
aI24
aI16
asg13
S'G'
sg14
g21
sa(dp580
g6
S'U'
sg7
(lp581
g18
ag28
asg10
I6
sg11
(lp582
I951
aI1351
aI23
aI17
asg13
S'G'
sg14
g21
sa(dp583
g6
S'D'
sg7
(lp584
g224
aS'2'
asg10
I5
sg11
(lp585
I1039
aI1338
aI27
aI44
asg13
S'A'
sg14
g21
sassI8
(dp586
g3
(lp587
(dp588
g6
S''
sg7
(lp589
S'f'
asg10
I5
sg11
(lp590
I24
aI1518
aI27
aI42
asg13
S''
sg14
g214
sa(dp591
g6
S'U'
sg7
(lp592
g280
aS'2'
asg10
I5
sg11
(lp593
I68
aI1516
aI14
aI33
asg13
S'A'
sg14
g21
sa(dp594
g6
S'D'
sg7
(lp595
g18
asg10
I5
sg11
(lp596
I107
aI1531
aI14
aI16
asg13
S'A'
sg14
g21
sa(dp597
g6
S'D'
sg7
(lp598
g224
aS'2'
asg10
I5
sg11
(lp599
I126
aI1532
aI26
aI36
asg13
S'A'
sg14
g21
sa(dp600
g6
S'D'
sg7
(lp601
g224
aS'2'
asg10
I7
sg11
(lp602
I176
aI1557
aI26
aI39
asg13
S'F'
sg14
g21
sa(dp603
g6
S'U'
sg7
(lp604
g280
aS'2'
asg10
I7
sg11
(lp605
I240
aI1538
aI13
aI35
asg13
S'F'
sg14
g21
sa(dp606
g6
S'U'
sg7
(lp607
g18
ag28
asg10
I6
sg11
(lp608
I278
aI1545
aI24
aI14
asg13
S'G'
sg14
g21
sa(dp609
g6
S'D'
sg7
(lp610
g18
asg10
I6
sg11
(lp611
I347
aI1545
aI14
aI15
asg13
S'G'
sg14
g21
sa(dp612
g6
S'D'
sg7
(lp613
g224
aS'2'
asg10
I7
sg11
(lp614
I417
aI1557
aI25
aI28
asg13
S'F'
sg14
g21
sa(dp615
g6
S'U'
sg7
(lp616
g280
aS'2'
asg10
I7
sg11
(lp617
I505
aI1543
aI14
aI30
asg13
S'F'
sg14
g21
sa(dp618
g6
S'U'
sg7
(lp619
g18
ag28
asg10
I6
sg11
(lp620
I544
aI1545
aI23
aI15
asg13
S'G'
sg14
g21
sa(dp621
g6
S'D'
sg7
(lp622
g18
asg10
I6
sg11
(lp623
I651
aI1545
aI13
aI15
asg13
S'G'
sg14
g21
sa(dp624
g6
S'D'
sg7
(lp625
g18
ag231
asg10
I4
sg11
(lp626
I700
aI1518
aI15
aI35
asg13
S'B'
sg14
g21
sa(dp627
g6
S'D'
sg7
(lp628
g18
asg10
I3
sg11
(lp629
I737
aI1505
aI15
aI16
asg13
S'C'
sg14
g21
sa(dp630
g6
S'D'
sg7
(lp631
g224
aS'2'
asg10
I4
sg11
(lp632
I808
aI1519
aI26
aI31
asg13
S'B'
sg14
g21
sa(dp633
g6
S'D'
sg7
(lp634
g18
asg10
I4
sg11
(lp635
I864
aI1519
aI15
aI15
asg13
S'B'
sg14
g21
sa(dp636
g6
S'D'
sg7
(lp637
g224
aS'2'
asg10
I4
sg11
(lp638
I903
aI1519
aI26
aI27
asg13
S'B'
sg14
g21
sa(dp639
g6
S'U'
sg7
(lp640
g18
ag28
asg10
I6
sg11
(lp641
I968
aI1544
aI23
aI16
asg13
S'G'
sg14
g21
sa(dp642
g6
S'D'
sg7
(lp643
g58
asg10
I6
sg11
(lp644
I1030
aI1544
aI13
aI22
asg13
S'G'
sg14
g21
sassI9
(dp645
g3
(lp646
(dp647
g6
S''
sg7
(lp648
S'f'
asg10
I5
sg11
(lp649
I26
aI1711
aI26
aI41
asg13
S''
sg14
g214
sa(dp650
g6
S'D'
sg7
(lp651
g18
asg10
I6
sg11
(lp652
I77
aI1736
aI12
aI15
asg13
S'G'
sg14
g21
sa(dp653
g6
S'D'
sg7
(lp654
g224
aS'2'
asg10
I6
sg11
(lp655
I114
aI1734
aI27
aI33
asg13
S'G'
sg14
g21
sa(dp656
g6
S'D'
sg7
(lp657
g18
asg10
I5
sg11
(lp658
I177
aI1722
aI14
aI17
asg13
S'A'
sg14
g21
sa(dp659
g6
S'U'
sg7
(lp660
g280
aS'2'
asg10
I7
sg11
(lp661
I216
aI1730
aI13
aI36
asg13
S'F'
sg14
g21
sa(dp662
g6
S'U'
sg7
(lp663
g18
ag28
asg10
I6
sg11
(lp664
I291
aI1736
aI23
aI14
asg13
S'G'
sg14
g21
sa(dp665
g6
S'U'
sg7
(lp666
g18
ag28
asg10
I6
sg11
(lp667
I342
aI1736
aI23
aI14
asg13
S'G'
sg14
g21
sass.